target datalayout = "e-m:e-p270:32:32-p271:32:32-p272:64:64-i64:64-i128:128-f80:128-n8:16:32:64-S128"
target triple = "x86_64-pc-linux-gnu"

%"class.toku::treenode" = type <{ %struct.toku_mutex_t, %"class.toku::keyrange", i64, i8, [7 x i8], ptr, %"struct.toku::treenode::child_ptr", %"struct.toku::treenode::child_ptr", ptr, i8, i8, [6 x i8] }>
%struct.toku_mutex_t = type { %union.pthread_mutex_t, ptr }
%union.pthread_mutex_t = type { %struct.__pthread_mutex_s }
%struct.__pthread_mutex_s = type { i32, i32, i32, i32, i32, i16, i16, %struct.__pthread_internal_list }
%struct.__pthread_internal_list = type { ptr, ptr }
%"class.toku::keyrange" = type <{ %struct.__toku_dbt, %struct.__toku_dbt, ptr, ptr, i8, [7 x i8] }>
%struct.__toku_dbt = type { ptr, i64, i64, i32 }
%"struct.toku::treenode::child_ptr" = type { ptr, i32 }

; Function Attrs: mustprogress uwtable
define void @_ZN4toku8treenode19set_range_and_txnidERKNS_8keyrangeEmb(ptr noundef nonnull align 8 dereferenceable(202) %0, ptr noundef nonnull align 8 dereferenceable(81) %1, i64 noundef %2, i1 noundef zeroext %3) #0 align 2 {
  %5 = alloca ptr, align 8
  %6 = alloca ptr, align 8
  %7 = alloca i64, align 8
  %8 = alloca i8, align 1
  store ptr %0, ptr %5, align 8, !tbaa !4
  store ptr %1, ptr %6, align 8, !tbaa !43
  store i64 %2, ptr %7, align 8, !tbaa !45
  %9 = zext i1 %3 to i8
  store i8 %9, ptr %8, align 1, !tbaa !46
  %10 = load ptr, ptr %5, align 8
  %11 = getelementptr inbounds nuw %"class.toku::treenode", ptr %10, i32 0, i32 1
  %12 = load ptr, ptr %6, align 8, !tbaa !43
  call void @_ZN4toku8keyrange11create_copyERKS0_(ptr noundef nonnull align 8 dereferenceable(81) %11, ptr noundef nonnull align 8 dereferenceable(81) %12)
  %13 = load i64, ptr %7, align 8, !tbaa !45
  %14 = getelementptr inbounds nuw %"class.toku::treenode", ptr %10, i32 0, i32 2
  store i64 %13, ptr %14, align 8, !tbaa !20
  %15 = load i8, ptr %8, align 1, !tbaa !46, !range !41, !noundef !42
  %16 = trunc i8 %15 to i1
  %17 = getelementptr inbounds nuw %"class.toku::treenode", ptr %10, i32 0, i32 3
  %18 = zext i1 %16 to i8
  store i8 %18, ptr %17, align 8, !tbaa !32
  %19 = getelementptr inbounds nuw %"class.toku::treenode", ptr %10, i32 0, i32 10
  store i8 0, ptr %19, align 1, !tbaa !30
  ret void
}