; Function Attrs: mustprogress uwtable
define void @_ZN4toku8treenode19set_range_and_txnidERKNS_8keyrangeEmb(ptr noundef nonnull align 8 dereferenceable(202) %0, ptr noundef nonnull align 8 dereferenceable(81) %1, i64 noundef %2, i1 noundef zeroext %3) local_unnamed_addr #5 align 2 {
  %5 = zext i1 %3 to i8
  %6 = getelementptr inbounds nuw i8, ptr %0, i64 48
  tail call void @_ZN4toku8keyrange11create_copyERKS0_(ptr noundef nonnull align 8 dereferenceable(81) %6, ptr noundef nonnull align 8 dereferenceable(81) %1)
  %7 = getelementptr inbounds nuw i8, ptr %0, i64 136
  store i64 %2, ptr %7, align 8, !tbaa !4
  %8 = getelementptr inbounds nuw i8, ptr %0, i64 144
  store i8 %5, ptr %8, align 8, !tbaa !24
  %9 = getelementptr inbounds nuw i8, ptr %0, i64 201
  store i8 0, ptr %9, align 1, !tbaa !22
  ret void
}